; Function Attrs: nounwind uwtable
define void @Acec_TreeFindTrees2_rec(ptr noundef readonly captures(none) %0, ptr noundef readonly captures(none) %1, i32 noundef %2, i32 noundef %3, ptr noundef captures(none) %4, ptr noundef readonly captures(none) %5) local_unnamed_addr #0 {
  %7 = getelementptr i8, ptr %5, i64 8
  %.val19 = load ptr, ptr %7, align 8
  %8 = ashr i32 %2, 5
  %9 = sext i32 %8 to i64
  %10 = getelementptr inbounds i32, ptr %.val19, i64 %9
  %11 = load i32, ptr %10, align 4
  %12 = and i32 %2, 31
  %13 = shl nuw i32 1, %12
  %14 = and i32 %11, %13
  %.not = icmp eq i32 %14, 0
  br i1 %.not, label %15, label %.loopexit

15:                                               ; preds = %6
  %16 = or i32 %11, %13
  store i32 %16, ptr %10, align 4
  %17 = getelementptr inbounds nuw i8, ptr %4, i64 4
  %18 = load i32, ptr %17, align 4
  %19 = load i32, ptr %4, align 8
  %20 = icmp eq i32 %18, %19
  br i1 %20, label %21, label %.Vec_IntGrow.exit10_crit_edge.i

.Vec_IntGrow.exit10_crit_edge.i:                  ; preds = %15
  %.phi.trans.insert.i = getelementptr inbounds nuw i8, ptr %4, i64 8
  %.pre.i = load ptr, ptr %.phi.trans.insert.i, align 8
  br label %Vec_IntPush.exit

21:                                               ; preds = %15
  %22 = icmp slt i32 %18, 16
  br i1 %22, label %23, label %31

23:                                               ; preds = %21
  %24 = getelementptr inbounds nuw i8, ptr %4, i64 8
  %25 = load ptr, ptr %24, align 8
  %.not9.i.i = icmp eq ptr %25, null
  br i1 %.not9.i.i, label %28, label %26

26:                                               ; preds = %23
  %27 = tail call dereferenceable_or_null(64) ptr @realloc(ptr noundef nonnull %25, i64 noundef 64) #23
  br label %Vec_IntGrow.exit.i

28:                                               ; preds = %23
  %29 = tail call noalias dereferenceable_or_null(64) ptr @malloc(i64 noundef 64) #22
  br label %Vec_IntGrow.exit.i

Vec_IntGrow.exit.i:                               ; preds = %28, %26
  %30 = phi ptr [ %27, %26 ], [ %29, %28 ]
  store ptr %30, ptr %24, align 8
  store i32 16, ptr %4, align 8
  br label %Vec_IntPush.exit

31:                                               ; preds = %21
  %32 = shl nuw nsw i32 %18, 1
  %33 = getelementptr inbounds nuw i8, ptr %4, i64 8
  %34 = load ptr, ptr %33, align 8
  %.not9.i9.i = icmp eq ptr %34, null
  %35 = zext nneg i32 %32 to i64
  %36 = shl nuw nsw i64 %35, 2
  br i1 %.not9.i9.i, label %39, label %37

37:                                               ; preds = %31
  %38 = tail call ptr @realloc(ptr noundef nonnull %34, i64 noundef %36) #23
  br label %41

39:                                               ; preds = %31
  %40 = tail call noalias ptr @malloc(i64 noundef %36) #22
  br label %41

41:                                               ; preds = %39, %37
  %42 = phi ptr [ %38, %37 ], [ %40, %39 ]
  store ptr %42, ptr %33, align 8
  store i32 %32, ptr %4, align 8
  br label %Vec_IntPush.exit

Vec_IntPush.exit:                                 ; preds = %.Vec_IntGrow.exit10_crit_edge.i, %Vec_IntGrow.exit.i, %41
  %43 = phi ptr [ %.pre.i, %.Vec_IntGrow.exit10_crit_edge.i ], [ %42, %41 ], [ %30, %Vec_IntGrow.exit.i ]
  %44 = load i32, ptr %17, align 4
  %45 = add nsw i32 %44, 1
  store i32 %45, ptr %17, align 4
  %46 = sext i32 %44 to i64
  %47 = getelementptr inbounds i32, ptr %43, i64 %46
  store i32 %2, ptr %47, align 4
  %48 = load i32, ptr %17, align 4
  %49 = load i32, ptr %4, align 8
  %50 = icmp eq i32 %48, %49
  br i1 %50, label %51, label %.Vec_IntGrow.exit10_crit_edge.i20

.Vec_IntGrow.exit10_crit_edge.i20:                ; preds = %Vec_IntPush.exit
  %.phi.trans.insert.i21 = getelementptr inbounds nuw i8, ptr %4, i64 8
  %.pre.i22 = load ptr, ptr %.phi.trans.insert.i21, align 8
  br label %Vec_IntPush.exit26

51:                                               ; preds = %Vec_IntPush.exit
  %52 = icmp slt i32 %48, 16
  br i1 %52, label %53, label %61

53:                                               ; preds = %51
  %54 = getelementptr inbounds nuw i8, ptr %4, i64 8
  %55 = load ptr, ptr %54, align 8
  %.not9.i.i24 = icmp eq ptr %55, null
  br i1 %.not9.i.i24, label %58, label %56

56:                                               ; preds = %53
  %57 = tail call dereferenceable_or_null(64) ptr @realloc(ptr noundef nonnull %55, i64 noundef 64) #23
  br label %Vec_IntGrow.exit.i25

58:                                               ; preds = %53
  %59 = tail call noalias dereferenceable_or_null(64) ptr @malloc(i64 noundef 64) #22
  br label %Vec_IntGrow.exit.i25

Vec_IntGrow.exit.i25:                             ; preds = %58, %56
  %60 = phi ptr [ %57, %56 ], [ %59, %58 ]
  store ptr %60, ptr %54, align 8
  store i32 16, ptr %4, align 8
  br label %Vec_IntPush.exit26

61:                                               ; preds = %51
  %62 = shl nuw nsw i32 %48, 1
  %63 = getelementptr inbounds nuw i8, ptr %4, i64 8
  %64 = load ptr, ptr %63, align 8
  %.not9.i9.i23 = icmp eq ptr %64, null
  %65 = zext nneg i32 %62 to i64
  %66 = shl nuw nsw i64 %65, 2
  br i1 %.not9.i9.i23, label %69, label %67

67:                                               ; preds = %61
  %68 = tail call ptr @realloc(ptr noundef nonnull %64, i64 noundef %66) #23
  br label %71

69:                                               ; preds = %61
  %70 = tail call noalias ptr @malloc(i64 noundef %66) #22
  br label %71

71:                                               ; preds = %69, %67
  %72 = phi ptr [ %68, %67 ], [ %70, %69 ]
  store ptr %72, ptr %63, align 8
  store i32 %62, ptr %4, align 8
  br label %Vec_IntPush.exit26

Vec_IntPush.exit26:                               ; preds = %.Vec_IntGrow.exit10_crit_edge.i20, %Vec_IntGrow.exit.i25, %71
  %73 = phi ptr [ %.pre.i22, %.Vec_IntGrow.exit10_crit_edge.i20 ], [ %72, %71 ], [ %60, %Vec_IntGrow.exit.i25 ]
  %74 = load i32, ptr %17, align 4
  %75 = add nsw i32 %74, 1
  store i32 %75, ptr %17, align 4
  %76 = sext i32 %74 to i64
  %77 = getelementptr inbounds i32, ptr %73, i64 %76
  store i32 %3, ptr %77, align 4
  %78 = mul nsw i32 %2, 6
  %79 = getelementptr i8, ptr %0, i64 8
  %80 = sext i32 %78 to i64
  br label %81

81:                                               ; preds = %Vec_IntPush.exit26, %81
  %indvars.iv = phi i64 [ 0, %Vec_IntPush.exit26 ], [ %indvars.iv.next, %81 ]
  %.val = load ptr, ptr %79, align 8
  %82 = getelementptr i32, ptr %.val, i64 %indvars.iv
  %83 = getelementptr i32, ptr %82, i64 %80
  %84 = load i32, ptr %83, align 4
  %85 = icmp eq i64 %indvars.iv, 4
  %86 = zext i1 %85 to i32
  %87 = add nsw i32 %3, %86
  tail call void @Acec_TreeFindTrees_rec(ptr noundef %0, ptr noundef %1, i32 noundef %84, i32 noundef %87, ptr noundef nonnull %4, ptr noundef %5)
  %indvars.iv.next = add nuw nsw i64 %indvars.iv, 1
  %exitcond.not = icmp eq i64 %indvars.iv.next, 5
  br i1 %exitcond.not, label %.loopexit, label %81, !llvm.loop !39

.loopexit:                                        ; preds = %81, %6
  ret void
}